; Function Attrs: mustprogress nounwind uwtable
define hidden { i64, i64 } @_ZNK5clang6driver10toolchains4OHOS22getSupportedSanitizersEv(ptr noundef nonnull align 8 dereferenceable(4680) %0) unnamed_addr #0 align 2 {
_ZN5clang13SanitizerMaskoRERKS0_.exit.critedge:
  %1 = tail call { i64, i64 } @_ZNK5clang6driver9ToolChain22getSupportedSanitizersEv(ptr noundef nonnull align 8 dereferenceable(2168) %0) #13
  %2 = extractvalue { i64, i64 } %1, 0
  %3 = extractvalue { i64, i64 } %1, 1
  %4 = or i64 %2, 72066390130963463
  %5 = or i64 %3, 256
  %.fca.0.insert = insertvalue { i64, i64 } poison, i64 %4, 0
  %.fca.1.insert = insertvalue { i64, i64 } %.fca.0.insert, i64 %5, 1
  ret { i64, i64 } %.fca.1.insert
}